target datalayout = "e-m:e-p270:32:32-p271:32:32-p272:64:64-i64:64-i128:128-f80:128-n8:16:32:64-S128"
target triple = "x86_64-pc-linux-gnu"

%struct.AVIOInterruptCB = type { ptr, ptr }
%struct.URLContext = type { ptr, ptr, ptr, ptr, i32, i32, i32, i32, %struct.AVIOInterruptCB, i64, ptr, ptr, i32 }
%struct.AsyncContext = type { ptr, ptr, i32, i64, i32, i32, i64, i32, i32, i32, i64, i64, %struct.RingBuffer, %union.pthread_cond_t, %union.pthread_cond_t, %union.pthread_mutex_t, i64, i32, %struct.AVIOInterruptCB }
%struct.RingBuffer = type { ptr, i32, i32 }
%union.pthread_cond_t = type { %struct.__pthread_cond_s }
%struct.__pthread_cond_s = type { %union.__atomic_wide_counter, %union.__atomic_wide_counter, [2 x i32], [2 x i32], i32, i32, [2 x i32] }
%union.__atomic_wide_counter = type { i64 }
%union.pthread_mutex_t = type { %struct.__pthread_mutex_s }
%struct.__pthread_mutex_s = type { i32, i32, i32, i32, i32, i16, i16, %struct.__pthread_internal_list }
%struct.__pthread_internal_list = type { ptr, ptr }

@.str.1 = private unnamed_addr constant [7 x i8] c"async:\00", align 1
@.str.2 = private unnamed_addr constant [28 x i8] c"ffurl_open failed : %s, %s\0A\00", align 1
@.str.3 = private unnamed_addr constant [32 x i8] c"pthread_mutex_init failed : %s\0A\00", align 1
@.str.4 = private unnamed_addr constant [31 x i8] c"pthread_cond_init failed : %s\0A\00", align 1
@.str.5 = private unnamed_addr constant [28 x i8] c"pthread_create failed : %s\0A\00", align 1

; Function Attrs: nounwind uwtable
define internal void @ring_destroy(ptr noundef %0) #0 {
  %2 = alloca ptr, align 8
  store ptr %0, ptr %2, align 8, !tbaa !37
  %3 = load ptr, ptr %2, align 8, !tbaa !37
  %4 = getelementptr inbounds nuw %struct.RingBuffer, ptr %3, i32 0, i32 0
  call void @av_fifo_freep2(ptr noundef %4)
  ret void
}

; Function Attrs: inlinehint nounwind uwtable
define internal ptr @av_make_error_string(ptr noundef %0, i64 noundef %1, i32 noundef %2) #4 {
  %4 = alloca ptr, align 8
  %5 = alloca i64, align 8
  %6 = alloca i32, align 4
  store ptr %0, ptr %4, align 8, !tbaa !9
  store i64 %1, ptr %5, align 8, !tbaa !36
  store i32 %2, ptr %6, align 4, !tbaa !11
  %7 = load i32, ptr %6, align 4, !tbaa !11
  %8 = load ptr, ptr %4, align 8, !tbaa !9
  %9 = load i64, ptr %5, align 8, !tbaa !36
  %10 = call i32 @av_strerror(i32 noundef %7, ptr noundef %8, i64 noundef %9)
  %11 = load ptr, ptr %4, align 8, !tbaa !9
  ret ptr %11
}

; Function Attrs: nounwind uwtable
define internal i32 @ring_init(ptr noundef %0, i32 noundef %1, i32 noundef %2) #0 {
  %4 = alloca i32, align 4
  %5 = alloca ptr, align 8
  %6 = alloca i32, align 4
  %7 = alloca i32, align 4
  store ptr %0, ptr %5, align 8, !tbaa !37
  store i32 %1, ptr %6, align 4, !tbaa !11
  store i32 %2, ptr %7, align 4, !tbaa !11
  %8 = load ptr, ptr %5, align 8, !tbaa !37
  call void @llvm.memset.p0.i64(ptr align 8 %8, i8 0, i64 16, i1 false)
  %9 = load i32, ptr %6, align 4, !tbaa !11
  %10 = load i32, ptr %7, align 4, !tbaa !11
  %11 = add i32 %9, %10
  %12 = zext i32 %11 to i64
  %13 = call ptr @av_fifo_alloc2(i64 noundef %12, i64 noundef 1, i32 noundef 0)
  %14 = load ptr, ptr %5, align 8, !tbaa !37
  %15 = getelementptr inbounds nuw %struct.RingBuffer, ptr %14, i32 0, i32 0
  store ptr %13, ptr %15, align 8, !tbaa !47
  %16 = load ptr, ptr %5, align 8, !tbaa !37
  %17 = getelementptr inbounds nuw %struct.RingBuffer, ptr %16, i32 0, i32 0
  %18 = load ptr, ptr %17, align 8, !tbaa !47
  %19 = icmp ne ptr %18, null
  br i1 %19, label %21, label %20

20:                                               ; preds = %3
  store i32 -12, ptr %4, align 4
  br label %25

21:                                               ; preds = %3
  %22 = load i32, ptr %7, align 4, !tbaa !11
  %23 = load ptr, ptr %5, align 8, !tbaa !37
  %24 = getelementptr inbounds nuw %struct.RingBuffer, ptr %23, i32 0, i32 1
  store i32 %22, ptr %24, align 8, !tbaa !48
  store i32 0, ptr %4, align 4
  br label %25

25:                                               ; preds = %21, %20
  %26 = load i32, ptr %4, align 4
  ret i32 %26
}

; Function Attrs: nounwind uwtable
define internal i32 @async_open(ptr noundef %0, ptr noundef %1, i32 noundef %2, ptr noundef %3) #0 {
  %5 = alloca i32, align 4
  %6 = alloca ptr, align 8
  %7 = alloca ptr, align 8
  %8 = alloca i32, align 4
  %9 = alloca ptr, align 8
  %10 = alloca ptr, align 8
  %11 = alloca i32, align 4
  %12 = alloca %struct.AVIOInterruptCB, align 8
  %13 = alloca [64 x i8], align 1
  %14 = alloca [64 x i8], align 1
  %15 = alloca [64 x i8], align 1
  %16 = alloca [64 x i8], align 1
  %17 = alloca [64 x i8], align 1
  %18 = alloca i32, align 4
  store ptr %0, ptr %6, align 8, !tbaa !4
  store ptr %1, ptr %7, align 8, !tbaa !9
  store i32 %2, ptr %8, align 4, !tbaa !11
  store ptr %3, ptr %9, align 8, !tbaa !13
  call void @llvm.lifetime.start.p0(i64 8, ptr %10) #7
  %19 = load ptr, ptr %6, align 8, !tbaa !4
  %20 = getelementptr inbounds nuw %struct.URLContext, ptr %19, i32 0, i32 2
  %21 = load ptr, ptr %20, align 8, !tbaa !16
  store ptr %21, ptr %10, align 8, !tbaa !22
  call void @llvm.lifetime.start.p0(i64 4, ptr %11) #7
  call void @llvm.lifetime.start.p0(i64 16, ptr %12) #7
  %22 = getelementptr inbounds nuw %struct.AVIOInterruptCB, ptr %12, i32 0, i32 0
  store ptr @async_check_interrupt, ptr %22, align 8, !tbaa !24
  %23 = getelementptr inbounds nuw %struct.AVIOInterruptCB, ptr %12, i32 0, i32 1
  %24 = load ptr, ptr %6, align 8, !tbaa !4
  store ptr %24, ptr %23, align 8, !tbaa !25
  %25 = load ptr, ptr %7, align 8, !tbaa !9
  %26 = call i32 @av_strstart(ptr noundef %25, ptr noundef @.str.1, ptr noundef %7)
  %27 = load ptr, ptr %10, align 8, !tbaa !22
  %28 = getelementptr inbounds nuw %struct.AsyncContext, ptr %27, i32 0, i32 12
  %29 = call i32 @ring_init(ptr noundef %28, i32 noundef 4194304, i32 noundef 4194304)
  store i32 %29, ptr %11, align 4, !tbaa !11
  %30 = load i32, ptr %11, align 4, !tbaa !11
  %31 = icmp slt i32 %30, 0
  br i1 %31, label %32, label %33

32:                                               ; preds = %4
  br label %145

33:                                               ; preds = %4
  %34 = load ptr, ptr %10, align 8, !tbaa !22
  %35 = getelementptr inbounds nuw %struct.AsyncContext, ptr %34, i32 0, i32 18
  %36 = load ptr, ptr %6, align 8, !tbaa !4
  %37 = getelementptr inbounds nuw %struct.URLContext, ptr %36, i32 0, i32 8
  call void @llvm.memcpy.p0.p0.i64(ptr align 8 %35, ptr align 8 %37, i64 16, i1 false), !tbaa.struct !26
  %38 = load ptr, ptr %10, align 8, !tbaa !22
  %39 = getelementptr inbounds nuw %struct.AsyncContext, ptr %38, i32 0, i32 1
  %40 = load ptr, ptr %7, align 8, !tbaa !9
  %41 = load i32, ptr %8, align 4, !tbaa !11
  %42 = load ptr, ptr %9, align 8, !tbaa !13
  %43 = load ptr, ptr %6, align 8, !tbaa !4
  %44 = getelementptr inbounds nuw %struct.URLContext, ptr %43, i32 0, i32 10
  %45 = load ptr, ptr %44, align 8, !tbaa !28
  %46 = load ptr, ptr %6, align 8, !tbaa !4
  %47 = getelementptr inbounds nuw %struct.URLContext, ptr %46, i32 0, i32 11
  %48 = load ptr, ptr %47, align 8, !tbaa !29
  %49 = load ptr, ptr %6, align 8, !tbaa !4
  %50 = call i32 @ffurl_open_whitelist(ptr noundef %39, ptr noundef %40, i32 noundef %41, ptr noundef %12, ptr noundef %42, ptr noundef %45, ptr noundef %48, ptr noundef %49)
  store i32 %50, ptr %11, align 4, !tbaa !11
  %51 = load i32, ptr %11, align 4, !tbaa !11
  %52 = icmp ne i32 %51, 0
  br i1 %52, label %53, label %59

53:                                               ; preds = %33
  %54 = load ptr, ptr %6, align 8, !tbaa !4
  call void @llvm.memset.p0.i64(ptr align 1 %13, i8 0, i64 64, i1 false)
  %55 = getelementptr inbounds [64 x i8], ptr %13, i64 0, i64 0
  %56 = load i32, ptr %11, align 4, !tbaa !11
  %57 = call ptr @av_make_error_string(ptr noundef %55, i64 noundef 64, i32 noundef %56)
  %58 = load ptr, ptr %7, align 8, !tbaa !9
  call void (ptr, i32, ptr, ...) @av_log(ptr noundef %54, i32 noundef 16, ptr noundef @.str.2, ptr noundef %57, ptr noundef %58)
  br label %142

59:                                               ; preds = %33
  %60 = load ptr, ptr %10, align 8, !tbaa !22
  %61 = getelementptr inbounds nuw %struct.AsyncContext, ptr %60, i32 0, i32 1
  %62 = load ptr, ptr %61, align 8, !tbaa !30
  %63 = call i64 @ffurl_size(ptr noundef %62)
  %64 = load ptr, ptr %10, align 8, !tbaa !22
  %65 = getelementptr inbounds nuw %struct.AsyncContext, ptr %64, i32 0, i32 11
  store i64 %63, ptr %65, align 8, !tbaa !34
  %66 = load ptr, ptr %10, align 8, !tbaa !22
  %67 = getelementptr inbounds nuw %struct.AsyncContext, ptr %66, i32 0, i32 1
  %68 = load ptr, ptr %67, align 8, !tbaa !30
  %69 = getelementptr inbounds nuw %struct.URLContext, ptr %68, i32 0, i32 6
  %70 = load i32, ptr %69, align 8, !tbaa !35
  %71 = load ptr, ptr %6, align 8, !tbaa !4
  %72 = getelementptr inbounds nuw %struct.URLContext, ptr %71, i32 0, i32 6
  store i32 %70, ptr %72, align 8, !tbaa !35
  %73 = load ptr, ptr %10, align 8, !tbaa !22
  %74 = getelementptr inbounds nuw %struct.AsyncContext, ptr %73, i32 0, i32 15
  %75 = call i32 @pthread_mutex_init(ptr noundef %74, ptr noundef null) #7
  store i32 %75, ptr %11, align 4, !tbaa !11
  %76 = load i32, ptr %11, align 4, !tbaa !11
  %77 = icmp ne i32 %76, 0
  br i1 %77, label %78, label %85

78:                                               ; preds = %59
  %79 = load i32, ptr %11, align 4, !tbaa !11
  %80 = sub nsw i32 0, %79
  store i32 %80, ptr %11, align 4, !tbaa !11
  %81 = load ptr, ptr %6, align 8, !tbaa !4
  call void @llvm.memset.p0.i64(ptr align 1 %14, i8 0, i64 64, i1 false)
  %82 = getelementptr inbounds [64 x i8], ptr %14, i64 0, i64 0
  %83 = load i32, ptr %11, align 4, !tbaa !11
  %84 = call ptr @av_make_error_string(ptr noundef %82, i64 noundef 64, i32 noundef %83)
  call void (ptr, i32, ptr, ...) @av_log(ptr noundef %81, i32 noundef 16, ptr noundef @.str.3, ptr noundef %84)
  br label %138

85:                                               ; preds = %59
  %86 = load ptr, ptr %10, align 8, !tbaa !22
  %87 = getelementptr inbounds nuw %struct.AsyncContext, ptr %86, i32 0, i32 13
  %88 = call i32 @pthread_cond_init(ptr noundef %87, ptr noundef null) #7
  store i32 %88, ptr %11, align 4, !tbaa !11
  %89 = load i32, ptr %11, align 4, !tbaa !11
  %90 = icmp ne i32 %89, 0
  br i1 %90, label %91, label %98

91:                                               ; preds = %85
  %92 = load i32, ptr %11, align 4, !tbaa !11
  %93 = sub nsw i32 0, %92
  store i32 %93, ptr %11, align 4, !tbaa !11
  %94 = load ptr, ptr %6, align 8, !tbaa !4
  call void @llvm.memset.p0.i64(ptr align 1 %15, i8 0, i64 64, i1 false)
  %95 = getelementptr inbounds [64 x i8], ptr %15, i64 0, i64 0
  %96 = load i32, ptr %11, align 4, !tbaa !11
  %97 = call ptr @av_make_error_string(ptr noundef %95, i64 noundef 64, i32 noundef %96)
  call void (ptr, i32, ptr, ...) @av_log(ptr noundef %94, i32 noundef 16, ptr noundef @.str.4, ptr noundef %97)
  br label %134

98:                                               ; preds = %85
  %99 = load ptr, ptr %10, align 8, !tbaa !22
  %100 = getelementptr inbounds nuw %struct.AsyncContext, ptr %99, i32 0, i32 14
  %101 = call i32 @pthread_cond_init(ptr noundef %100, ptr noundef null) #7
  store i32 %101, ptr %11, align 4, !tbaa !11
  %102 = load i32, ptr %11, align 4, !tbaa !11
  %103 = icmp ne i32 %102, 0
  br i1 %103, label %104, label %111

104:                                              ; preds = %98
  %105 = load i32, ptr %11, align 4, !tbaa !11
  %106 = sub nsw i32 0, %105
  store i32 %106, ptr %11, align 4, !tbaa !11
  %107 = load ptr, ptr %6, align 8, !tbaa !4
  call void @llvm.memset.p0.i64(ptr align 1 %16, i8 0, i64 64, i1 false)
  %108 = getelementptr inbounds [64 x i8], ptr %16, i64 0, i64 0
  %109 = load i32, ptr %11, align 4, !tbaa !11
  %110 = call ptr @av_make_error_string(ptr noundef %108, i64 noundef 64, i32 noundef %109)
  call void (ptr, i32, ptr, ...) @av_log(ptr noundef %107, i32 noundef 16, ptr noundef @.str.4, ptr noundef %110)
  br label %130

111:                                              ; preds = %98
  %112 = load ptr, ptr %10, align 8, !tbaa !22
  %113 = getelementptr inbounds nuw %struct.AsyncContext, ptr %112, i32 0, i32 16
  %114 = load ptr, ptr %6, align 8, !tbaa !4
  %115 = call i32 @pthread_create(ptr noundef %113, ptr noundef null, ptr noundef @async_buffer_task, ptr noundef %114) #7
  store i32 %115, ptr %11, align 4, !tbaa !11
  %116 = load i32, ptr %11, align 4, !tbaa !11
  %117 = icmp ne i32 %116, 0
  br i1 %117, label %118, label %125

118:                                              ; preds = %111
  %119 = load i32, ptr %11, align 4, !tbaa !11
  %120 = sub nsw i32 0, %119
  store i32 %120, ptr %11, align 4, !tbaa !11
  %121 = load ptr, ptr %6, align 8, !tbaa !4
  call void @llvm.memset.p0.i64(ptr align 1 %17, i8 0, i64 64, i1 false)
  %122 = getelementptr inbounds [64 x i8], ptr %17, i64 0, i64 0
  %123 = load i32, ptr %11, align 4, !tbaa !11
  %124 = call ptr @av_make_error_string(ptr noundef %122, i64 noundef 64, i32 noundef %123)
  call void (ptr, i32, ptr, ...) @av_log(ptr noundef %121, i32 noundef 16, ptr noundef @.str.5, ptr noundef %124)
  br label %126

125:                                              ; preds = %111
  store i32 0, ptr %5, align 4
  store i32 1, ptr %18, align 4
  br label %147

126:                                              ; preds = %118
  %127 = load ptr, ptr %10, align 8, !tbaa !22
  %128 = getelementptr inbounds nuw %struct.AsyncContext, ptr %127, i32 0, i32 14
  %129 = call i32 @pthread_cond_destroy(ptr noundef %128) #7
  br label %130

130:                                              ; preds = %126, %104
  %131 = load ptr, ptr %10, align 8, !tbaa !22
  %132 = getelementptr inbounds nuw %struct.AsyncContext, ptr %131, i32 0, i32 13
  %133 = call i32 @pthread_cond_destroy(ptr noundef %132) #7
  br label %134

134:                                              ; preds = %130, %91
  %135 = load ptr, ptr %10, align 8, !tbaa !22
  %136 = getelementptr inbounds nuw %struct.AsyncContext, ptr %135, i32 0, i32 15
  %137 = call i32 @pthread_mutex_destroy(ptr noundef %136) #7
  br label %138

138:                                              ; preds = %134, %78
  %139 = load ptr, ptr %10, align 8, !tbaa !22
  %140 = getelementptr inbounds nuw %struct.AsyncContext, ptr %139, i32 0, i32 1
  %141 = call i32 @ffurl_closep(ptr noundef %140)
  br label %142

142:                                              ; preds = %138, %53
  %143 = load ptr, ptr %10, align 8, !tbaa !22
  %144 = getelementptr inbounds nuw %struct.AsyncContext, ptr %143, i32 0, i32 12
  call void @ring_destroy(ptr noundef %144)
  br label %145

145:                                              ; preds = %142, %32
  %146 = load i32, ptr %11, align 4, !tbaa !11
  store i32 %146, ptr %5, align 4
  store i32 1, ptr %18, align 4
  br label %147

147:                                              ; preds = %145, %125
  call void @llvm.lifetime.end.p0(i64 16, ptr %12) #7
  call void @llvm.lifetime.end.p0(i64 4, ptr %11) #7
  call void @llvm.lifetime.end.p0(i64 8, ptr %10) #7
  %148 = load i32, ptr %5, align 4
  ret i32 %148
}