; Function Attrs: nounwind uwtable
define internal i32 @async_open(ptr noundef %0, ptr noundef %1, i32 noundef %2, ptr noundef %3) #0 {
  %5 = alloca ptr, align 8
  %6 = alloca %struct.AVIOInterruptCB, align 8
  %7 = alloca [64 x i8], align 1
  %8 = alloca [64 x i8], align 1
  %9 = alloca [64 x i8], align 1
  %10 = alloca [64 x i8], align 1
  %11 = alloca [64 x i8], align 1
  store ptr %1, ptr %5, align 8, !tbaa !4
  %12 = getelementptr inbounds nuw i8, ptr %0, i64 16
  %13 = load ptr, ptr %12, align 8, !tbaa !9
  call void @llvm.lifetime.start.p0(i64 16, ptr nonnull %6) #7
  store ptr @async_check_interrupt, ptr %6, align 8, !tbaa !16
  %14 = getelementptr inbounds nuw i8, ptr %6, i64 8
  store ptr %0, ptr %14, align 8, !tbaa !17
  %15 = call i32 @av_strstart(ptr noundef %1, ptr noundef nonnull @.str.1, ptr noundef nonnull %5) #7
  %16 = getelementptr inbounds nuw i8, ptr %13, i64 80
  call void @llvm.memset.p0.i64(ptr noundef nonnull align 8 dereferenceable(16) %16, i8 0, i64 16, i1 false)
  %17 = call ptr @av_fifo_alloc2(i64 noundef 8388608, i64 noundef 1, i32 noundef 0) #7
  store ptr %17, ptr %16, align 8, !tbaa !18
  %.not.i = icmp eq ptr %17, null
  br i1 %.not.i, label %ring_init.exit.thread, label %18

18:                                               ; preds = %4
  %19 = getelementptr inbounds nuw i8, ptr %13, i64 88
  store i32 4194304, ptr %19, align 8, !tbaa !21
  %20 = getelementptr inbounds nuw i8, ptr %13, i64 248
  %21 = getelementptr inbounds nuw i8, ptr %0, i64 48
  call void @llvm.memcpy.p0.p0.i64(ptr noundef nonnull align 8 dereferenceable(16) %20, ptr noundef nonnull align 8 dereferenceable(16) %21, i64 16, i1 false), !tbaa.struct !22
  %22 = getelementptr inbounds nuw i8, ptr %13, i64 8
  %23 = load ptr, ptr %5, align 8, !tbaa !4
  %24 = getelementptr inbounds nuw i8, ptr %0, i64 72
  %25 = load ptr, ptr %24, align 8, !tbaa !24
  %26 = getelementptr inbounds nuw i8, ptr %0, i64 80
  %27 = load ptr, ptr %26, align 8, !tbaa !25
  %28 = call i32 @ffurl_open_whitelist(ptr noundef nonnull %22, ptr noundef %23, i32 noundef %2, ptr noundef nonnull %6, ptr noundef %3, ptr noundef %25, ptr noundef %27, ptr noundef nonnull %0) #7
  %.not = icmp eq i32 %28, 0
  br i1 %.not, label %32, label %29

29:                                               ; preds = %18
  call void @llvm.memset.p0.i64(ptr noundef nonnull align 1 dereferenceable(64) %7, i8 0, i64 64, i1 false)
  %30 = call i32 @av_strerror(i32 noundef %28, ptr noundef nonnull %7, i64 noundef 64) #7
  %31 = load ptr, ptr %5, align 8, !tbaa !4
  call void (ptr, i32, ptr, ...) @av_log(ptr noundef nonnull %0, i32 noundef 16, ptr noundef nonnull @.str.2, ptr noundef nonnull %7, ptr noundef %31) #7
  br label %70

32:                                               ; preds = %18
  %33 = load ptr, ptr %22, align 8, !tbaa !26
  %34 = call i64 @ffurl_size(ptr noundef %33) #7
  %35 = getelementptr inbounds nuw i8, ptr %13, i64 72
  store i64 %34, ptr %35, align 8, !tbaa !29
  %36 = load ptr, ptr %22, align 8, !tbaa !26
  %37 = getelementptr inbounds nuw i8, ptr %36, i64 40
  %38 = load i32, ptr %37, align 8, !tbaa !30
  %39 = getelementptr inbounds nuw i8, ptr %0, i64 40
  store i32 %38, ptr %39, align 8, !tbaa !30
  %40 = getelementptr inbounds nuw i8, ptr %13, i64 192
  %41 = call i32 @pthread_mutex_init(ptr noundef nonnull %40, ptr noundef null) #7
  %.not53 = icmp eq i32 %41, 0
  br i1 %.not53, label %45, label %42

42:                                               ; preds = %32
  %43 = sub nsw i32 0, %41
  call void @llvm.memset.p0.i64(ptr noundef nonnull align 1 dereferenceable(64) %8, i8 0, i64 64, i1 false)
  %44 = call i32 @av_strerror(i32 noundef %43, ptr noundef nonnull %8, i64 noundef 64) #7
  call void (ptr, i32, ptr, ...) @av_log(ptr noundef nonnull %0, i32 noundef 16, ptr noundef nonnull @.str.3, ptr noundef nonnull %8) #7
  br label %68

45:                                               ; preds = %32
  %46 = getelementptr inbounds nuw i8, ptr %13, i64 96
  %47 = call i32 @pthread_cond_init(ptr noundef nonnull %46, ptr noundef null) #7
  %.not54 = icmp eq i32 %47, 0
  br i1 %.not54, label %51, label %48

48:                                               ; preds = %45
  %49 = sub nsw i32 0, %47
  call void @llvm.memset.p0.i64(ptr noundef nonnull align 1 dereferenceable(64) %9, i8 0, i64 64, i1 false)
  %50 = call i32 @av_strerror(i32 noundef %49, ptr noundef nonnull %9, i64 noundef 64) #7
  call void (ptr, i32, ptr, ...) @av_log(ptr noundef nonnull %0, i32 noundef 16, ptr noundef nonnull @.str.4, ptr noundef nonnull %9) #7
  br label %66

51:                                               ; preds = %45
  %52 = getelementptr inbounds nuw i8, ptr %13, i64 144
  %53 = call i32 @pthread_cond_init(ptr noundef nonnull %52, ptr noundef null) #7
  %.not55 = icmp eq i32 %53, 0
  br i1 %.not55, label %57, label %54

54:                                               ; preds = %51
  %55 = sub nsw i32 0, %53
  call void @llvm.memset.p0.i64(ptr noundef nonnull align 1 dereferenceable(64) %10, i8 0, i64 64, i1 false)
  %56 = call i32 @av_strerror(i32 noundef %55, ptr noundef nonnull %10, i64 noundef 64) #7
  call void (ptr, i32, ptr, ...) @av_log(ptr noundef nonnull %0, i32 noundef 16, ptr noundef nonnull @.str.4, ptr noundef nonnull %10) #7
  br label %64

57:                                               ; preds = %51
  %58 = getelementptr inbounds nuw i8, ptr %13, i64 232
  %59 = call i32 @pthread_create(ptr noundef nonnull %58, ptr noundef null, ptr noundef nonnull @async_buffer_task, ptr noundef nonnull %0) #7
  %.not56 = icmp eq i32 %59, 0
  br i1 %.not56, label %ring_init.exit.thread, label %60

60:                                               ; preds = %57
  %61 = sub nsw i32 0, %59
  call void @llvm.memset.p0.i64(ptr noundef nonnull align 1 dereferenceable(64) %11, i8 0, i64 64, i1 false)
  %62 = call i32 @av_strerror(i32 noundef %61, ptr noundef nonnull %11, i64 noundef 64) #7
  call void (ptr, i32, ptr, ...) @av_log(ptr noundef nonnull %0, i32 noundef 16, ptr noundef nonnull @.str.5, ptr noundef nonnull %11) #7
  %63 = call i32 @pthread_cond_destroy(ptr noundef nonnull %52) #7
  br label %64

64:                                               ; preds = %60, %54
  %.4 = phi i32 [ %55, %54 ], [ %61, %60 ]
  %65 = call i32 @pthread_cond_destroy(ptr noundef nonnull %46) #7
  br label %66

66:                                               ; preds = %64, %48
  %.3 = phi i32 [ %49, %48 ], [ %.4, %64 ]
  %67 = call i32 @pthread_mutex_destroy(ptr noundef nonnull %40) #7
  br label %68

68:                                               ; preds = %66, %42
  %.2 = phi i32 [ %43, %42 ], [ %.3, %66 ]
  %69 = call i32 @ffurl_closep(ptr noundef nonnull %22) #7
  br label %70

70:                                               ; preds = %68, %29
  %.1 = phi i32 [ %28, %29 ], [ %.2, %68 ]
  call void @av_fifo_freep2(ptr noundef nonnull %16) #7
  br label %ring_init.exit.thread

ring_init.exit.thread:                            ; preds = %4, %70, %57
  %.046 = phi i32 [ 0, %57 ], [ %.1, %70 ], [ -12, %4 ]
  call void @llvm.lifetime.end.p0(i64 16, ptr nonnull %6) #7
  ret i32 %.046
}